target datalayout = "e-m:e-p270:32:32-p271:32:32-p272:64:64-i64:64-i128:128-f80:128-n8:16:32:64-S128"
target triple = "x86_64-unknown-linux-gnu"

%struct.FLAC__BitWriter = type { ptr, i64, i32, i32, i32 }

@FLAC__STREAM_METADATA_LENGTH_LEN = external constant i32, align 4

; Function Attrs: nounwind sspstrong uwtable
define internal ptr @safe_realloc_nofree_mul_2op_(ptr noundef %ptr, i64 noundef %size1, i64 noundef %size2) #0 {
entry:
  %retval = alloca ptr, align 8
  %ptr.addr = alloca ptr, align 8
  %size1.addr = alloca i64, align 8
  %size2.addr = alloca i64, align 8
  store ptr %ptr, ptr %ptr.addr, align 8
  store i64 %size1, ptr %size1.addr, align 8
  store i64 %size2, ptr %size2.addr, align 8
  %0 = load i64, ptr %size1.addr, align 8
  %tobool = icmp ne i64 %0, 0
  br i1 %tobool, label %lor.lhs.false, label %if.then

lor.lhs.false:                                    ; preds = %entry
  %1 = load i64, ptr %size2.addr, align 8
  %tobool1 = icmp ne i64 %1, 0
  br i1 %tobool1, label %if.end, label %if.then

if.then:                                          ; preds = %lor.lhs.false, %entry
  %2 = load ptr, ptr %ptr.addr, align 8
  %call = call ptr @realloc(ptr noundef %2, i64 noundef 0) #10
  store ptr %call, ptr %retval, align 8
  br label %return

if.end:                                           ; preds = %lor.lhs.false
  %3 = load i64, ptr %size1.addr, align 8
  %4 = load i64, ptr %size2.addr, align 8
  %div = udiv i64 -1, %4
  %cmp = icmp ugt i64 %3, %div
  br i1 %cmp, label %if.then2, label %if.end3

if.then2:                                         ; preds = %if.end
  store ptr null, ptr %retval, align 8
  br label %return

if.end3:                                          ; preds = %if.end
  %5 = load ptr, ptr %ptr.addr, align 8
  %6 = load i64, ptr %size1.addr, align 8
  %7 = load i64, ptr %size2.addr, align 8
  %mul = mul i64 %6, %7
  %call4 = call ptr @realloc(ptr noundef %5, i64 noundef %mul) #10
  store ptr %call4, ptr %retval, align 8
  br label %return

return:                                           ; preds = %if.end3, %if.then2, %if.then
  %8 = load ptr, ptr %retval, align 8
  ret ptr %8
}

; Function Attrs: nounwind sspstrong uwtable
define internal i32 @bitwriter_grow_(ptr noundef %bw, i32 noundef %bits_to_add) #0 {
entry:
  %retval = alloca i32, align 4
  %bw.addr = alloca ptr, align 8
  %bits_to_add.addr = alloca i32, align 4
  %new_capacity = alloca i32, align 4
  %new_buffer = alloca ptr, align 8
  store ptr %bw, ptr %bw.addr, align 8
  store i32 %bits_to_add, ptr %bits_to_add.addr, align 4
  %0 = load ptr, ptr %bw.addr, align 8
  %words = getelementptr inbounds %struct.FLAC__BitWriter, ptr %0, i32 0, i32 3
  %1 = load i32, ptr %words, align 4
  %2 = load ptr, ptr %bw.addr, align 8
  %bits = getelementptr inbounds %struct.FLAC__BitWriter, ptr %2, i32 0, i32 4
  %3 = load i32, ptr %bits, align 8
  %4 = load i32, ptr %bits_to_add.addr, align 4
  %add = add i32 %3, %4
  %add1 = add i32 %add, 64
  %sub = sub i32 %add1, 1
  %div = udiv i32 %sub, 64
  %add2 = add i32 %1, %div
  store i32 %add2, ptr %new_capacity, align 4
  %5 = load ptr, ptr %bw.addr, align 8
  %capacity = getelementptr inbounds %struct.FLAC__BitWriter, ptr %5, i32 0, i32 2
  %6 = load i32, ptr %capacity, align 8
  %7 = load i32, ptr %new_capacity, align 4
  %cmp = icmp uge i32 %6, %7
  br i1 %cmp, label %if.then, label %if.end

if.then:                                          ; preds = %entry
  store i32 1, ptr %retval, align 4
  br label %return

if.end:                                           ; preds = %entry
  %8 = load i32, ptr %new_capacity, align 4
  %conv = zext i32 %8 to i64
  %mul = mul i64 %conv, 8
  %9 = load i32, ptr @FLAC__STREAM_METADATA_LENGTH_LEN, align 4
  %shl = shl i32 1, %9
  %conv3 = zext i32 %shl to i64
  %cmp4 = icmp ugt i64 %mul, %conv3
  br i1 %cmp4, label %if.then6, label %if.end7

if.then6:                                         ; preds = %if.end
  store i32 0, ptr %retval, align 4
  br label %return

if.end7:                                          ; preds = %if.end
  %10 = load i32, ptr %new_capacity, align 4
  %11 = load ptr, ptr %bw.addr, align 8
  %capacity8 = getelementptr inbounds %struct.FLAC__BitWriter, ptr %11, i32 0, i32 2
  %12 = load i32, ptr %capacity8, align 8
  %sub9 = sub i32 %10, %12
  %rem = urem i32 %sub9, 512
  %tobool = icmp ne i32 %rem, 0
  br i1 %tobool, label %if.then10, label %if.end16

if.then10:                                        ; preds = %if.end7
  %13 = load i32, ptr %new_capacity, align 4
  %14 = load ptr, ptr %bw.addr, align 8
  %capacity11 = getelementptr inbounds %struct.FLAC__BitWriter, ptr %14, i32 0, i32 2
  %15 = load i32, ptr %capacity11, align 8
  %sub12 = sub i32 %13, %15
  %rem13 = urem i32 %sub12, 512
  %sub14 = sub i32 512, %rem13
  %16 = load i32, ptr %new_capacity, align 4
  %add15 = add i32 %16, %sub14
  store i32 %add15, ptr %new_capacity, align 4
  br label %if.end16

if.end16:                                         ; preds = %if.then10, %if.end7
  %17 = load ptr, ptr %bw.addr, align 8
  %buffer = getelementptr inbounds %struct.FLAC__BitWriter, ptr %17, i32 0, i32 0
  %18 = load ptr, ptr %buffer, align 8
  %19 = load i32, ptr %new_capacity, align 4
  %conv17 = zext i32 %19 to i64
  %call = call ptr @safe_realloc_nofree_mul_2op_(ptr noundef %18, i64 noundef 8, i64 noundef %conv17)
  store ptr %call, ptr %new_buffer, align 8
  %20 = load ptr, ptr %new_buffer, align 8
  %cmp18 = icmp eq ptr %20, null
  br i1 %cmp18, label %if.then20, label %if.end21

if.then20:                                        ; preds = %if.end16
  store i32 0, ptr %retval, align 4
  br label %return

if.end21:                                         ; preds = %if.end16
  %21 = load ptr, ptr %new_buffer, align 8
  %22 = load ptr, ptr %bw.addr, align 8
  %buffer22 = getelementptr inbounds %struct.FLAC__BitWriter, ptr %22, i32 0, i32 0
  store ptr %21, ptr %buffer22, align 8
  %23 = load i32, ptr %new_capacity, align 4
  %24 = load ptr, ptr %bw.addr, align 8
  %capacity23 = getelementptr inbounds %struct.FLAC__BitWriter, ptr %24, i32 0, i32 2
  store i32 %23, ptr %capacity23, align 8
  store i32 1, ptr %retval, align 4
  br label %return

return:                                           ; preds = %if.end21, %if.then20, %if.then6, %if.then
  %25 = load i32, ptr %retval, align 4
  ret i32 %25
}

; Function Attrs: nounwind sspstrong uwtable
define internal i32 @FLAC__bitwriter_write_raw_uint32_nocheck(ptr noundef %bw, i32 noundef %val, i32 noundef %bits) #0 {
entry:
  %retval = alloca i32, align 4
  %bw.addr = alloca ptr, align 8
  %val.addr = alloca i32, align 4
  %bits.addr = alloca i32, align 4
  %left = alloca i32, align 4
  store ptr %bw, ptr %bw.addr, align 8
  store i32 %val, ptr %val.addr, align 4
  store i32 %bits, ptr %bits.addr, align 4
  %0 = load ptr, ptr %bw.addr, align 8
  %cmp = icmp eq ptr %0, null
  br i1 %cmp, label %if.then, label %lor.lhs.false

lor.lhs.false:                                    ; preds = %entry
  %1 = load ptr, ptr %bw.addr, align 8
  %buffer = getelementptr inbounds %struct.FLAC__BitWriter, ptr %1, i32 0, i32 0
  %2 = load ptr, ptr %buffer, align 8
  %cmp1 = icmp eq ptr %2, null
  br i1 %cmp1, label %if.then, label %if.end

if.then:                                          ; preds = %lor.lhs.false, %entry
  store i32 0, ptr %retval, align 4
  br label %return

if.end:                                           ; preds = %lor.lhs.false
  %3 = load i32, ptr %bits.addr, align 4
  %cmp2 = icmp ugt i32 %3, 32
  br i1 %cmp2, label %if.then3, label %if.end4

if.then3:                                         ; preds = %if.end
  store i32 0, ptr %retval, align 4
  br label %return

if.end4:                                          ; preds = %if.end
  %4 = load i32, ptr %bits.addr, align 4
  %cmp5 = icmp eq i32 %4, 0
  br i1 %cmp5, label %if.then6, label %if.end7

if.then6:                                         ; preds = %if.end4
  store i32 1, ptr %retval, align 4
  br label %return

if.end7:                                          ; preds = %if.end4
  %5 = load ptr, ptr %bw.addr, align 8
  %capacity = getelementptr inbounds %struct.FLAC__BitWriter, ptr %5, i32 0, i32 2
  %6 = load i32, ptr %capacity, align 8
  %7 = load ptr, ptr %bw.addr, align 8
  %words = getelementptr inbounds %struct.FLAC__BitWriter, ptr %7, i32 0, i32 3
  %8 = load i32, ptr %words, align 4
  %9 = load i32, ptr %bits.addr, align 4
  %add = add i32 %8, %9
  %cmp8 = icmp ule i32 %6, %add
  br i1 %cmp8, label %land.lhs.true, label %if.end10

land.lhs.true:                                    ; preds = %if.end7
  %10 = load ptr, ptr %bw.addr, align 8
  %11 = load i32, ptr %bits.addr, align 4
  %call = call i32 @bitwriter_grow_(ptr noundef %10, i32 noundef %11)
  %tobool = icmp ne i32 %call, 0
  br i1 %tobool, label %if.end10, label %if.then9

if.then9:                                         ; preds = %land.lhs.true
  store i32 0, ptr %retval, align 4
  br label %return

if.end10:                                         ; preds = %land.lhs.true, %if.end7
  %12 = load ptr, ptr %bw.addr, align 8
  %bits11 = getelementptr inbounds %struct.FLAC__BitWriter, ptr %12, i32 0, i32 4
  %13 = load i32, ptr %bits11, align 8
  %sub = sub i32 64, %13
  store i32 %sub, ptr %left, align 4
  %14 = load i32, ptr %bits.addr, align 4
  %15 = load i32, ptr %left, align 4
  %cmp12 = icmp ult i32 %14, %15
  br i1 %cmp12, label %if.then13, label %if.else

if.then13:                                        ; preds = %if.end10
  %16 = load i32, ptr %bits.addr, align 4
  %17 = load ptr, ptr %bw.addr, align 8
  %accum = getelementptr inbounds %struct.FLAC__BitWriter, ptr %17, i32 0, i32 1
  %18 = load i64, ptr %accum, align 8
  %sh_prom = zext i32 %16 to i64
  %shl = shl i64 %18, %sh_prom
  store i64 %shl, ptr %accum, align 8
  %19 = load i32, ptr %val.addr, align 4
  %conv = zext i32 %19 to i64
  %20 = load ptr, ptr %bw.addr, align 8
  %accum14 = getelementptr inbounds %struct.FLAC__BitWriter, ptr %20, i32 0, i32 1
  %21 = load i64, ptr %accum14, align 8
  %or = or i64 %21, %conv
  store i64 %or, ptr %accum14, align 8
  %22 = load i32, ptr %bits.addr, align 4
  %23 = load ptr, ptr %bw.addr, align 8
  %bits15 = getelementptr inbounds %struct.FLAC__BitWriter, ptr %23, i32 0, i32 4
  %24 = load i32, ptr %bits15, align 8
  %add16 = add i32 %24, %22
  store i32 %add16, ptr %bits15, align 8
  br label %if.end41

if.else:                                          ; preds = %if.end10
  %25 = load ptr, ptr %bw.addr, align 8
  %bits17 = getelementptr inbounds %struct.FLAC__BitWriter, ptr %25, i32 0, i32 4
  %26 = load i32, ptr %bits17, align 8
  %tobool18 = icmp ne i32 %26, 0
  br i1 %tobool18, label %if.then19, label %if.else33

if.then19:                                        ; preds = %if.else
  %27 = load i32, ptr %left, align 4
  %28 = load ptr, ptr %bw.addr, align 8
  %accum20 = getelementptr inbounds %struct.FLAC__BitWriter, ptr %28, i32 0, i32 1
  %29 = load i64, ptr %accum20, align 8
  %sh_prom21 = zext i32 %27 to i64
  %shl22 = shl i64 %29, %sh_prom21
  store i64 %shl22, ptr %accum20, align 8
  %30 = load i32, ptr %val.addr, align 4
  %31 = load i32, ptr %bits.addr, align 4
  %32 = load i32, ptr %left, align 4
  %sub23 = sub i32 %31, %32
  %33 = load ptr, ptr %bw.addr, align 8
  %bits24 = getelementptr inbounds %struct.FLAC__BitWriter, ptr %33, i32 0, i32 4
  store i32 %sub23, ptr %bits24, align 8
  %shr = lshr i32 %30, %sub23
  %conv25 = zext i32 %shr to i64
  %34 = load ptr, ptr %bw.addr, align 8
  %accum26 = getelementptr inbounds %struct.FLAC__BitWriter, ptr %34, i32 0, i32 1
  %35 = load i64, ptr %accum26, align 8
  %or27 = or i64 %35, %conv25
  store i64 %or27, ptr %accum26, align 8
  %36 = load ptr, ptr %bw.addr, align 8
  %accum28 = getelementptr inbounds %struct.FLAC__BitWriter, ptr %36, i32 0, i32 1
  %37 = load i64, ptr %accum28, align 8
  %38 = call i64 @llvm.bswap.i64(i64 %37)
  %39 = load ptr, ptr %bw.addr, align 8
  %buffer29 = getelementptr inbounds %struct.FLAC__BitWriter, ptr %39, i32 0, i32 0
  %40 = load ptr, ptr %buffer29, align 8
  %41 = load ptr, ptr %bw.addr, align 8
  %words30 = getelementptr inbounds %struct.FLAC__BitWriter, ptr %41, i32 0, i32 3
  %42 = load i32, ptr %words30, align 4
  %inc = add i32 %42, 1
  store i32 %inc, ptr %words30, align 4
  %idxprom = zext i32 %42 to i64
  %arrayidx = getelementptr inbounds i64, ptr %40, i64 %idxprom
  store i64 %38, ptr %arrayidx, align 8
  %43 = load i32, ptr %val.addr, align 4
  %conv31 = zext i32 %43 to i64
  %44 = load ptr, ptr %bw.addr, align 8
  %accum32 = getelementptr inbounds %struct.FLAC__BitWriter, ptr %44, i32 0, i32 1
  store i64 %conv31, ptr %accum32, align 8
  br label %if.end40

if.else33:                                        ; preds = %if.else
  %45 = load i32, ptr %val.addr, align 4
  %conv34 = zext i32 %45 to i64
  %46 = call i64 @llvm.bswap.i64(i64 %conv34)
  %47 = load ptr, ptr %bw.addr, align 8
  %buffer35 = getelementptr inbounds %struct.FLAC__BitWriter, ptr %47, i32 0, i32 0
  %48 = load ptr, ptr %buffer35, align 8
  %49 = load ptr, ptr %bw.addr, align 8
  %words36 = getelementptr inbounds %struct.FLAC__BitWriter, ptr %49, i32 0, i32 3
  %50 = load i32, ptr %words36, align 4
  %inc37 = add i32 %50, 1
  store i32 %inc37, ptr %words36, align 4
  %idxprom38 = zext i32 %50 to i64
  %arrayidx39 = getelementptr inbounds i64, ptr %48, i64 %idxprom38
  store i64 %46, ptr %arrayidx39, align 8
  br label %if.end40

if.end40:                                         ; preds = %if.else33, %if.then19
  br label %if.end41

if.end41:                                         ; preds = %if.end40, %if.then13
  store i32 1, ptr %retval, align 4
  br label %return

return:                                           ; preds = %if.end41, %if.then9, %if.then6, %if.then3, %if.then
  %51 = load i32, ptr %retval, align 4
  ret i32 %51
}