; Function Attrs: mustprogress nounwind sspstrong willreturn uwtable
define internal fastcc range(i32 0, 2) i32 @FLAC__bitwriter_write_raw_uint32_nocheck(ptr noundef %bw, i32 noundef %val, i32 noundef %bits) unnamed_addr #2 {
entry:
  %cmp = icmp eq ptr %bw, null
  br i1 %cmp, label %return, label %lor.lhs.false

lor.lhs.false:                                    ; preds = %entry
  %0 = load ptr, ptr %bw, align 8
  %cmp1 = icmp eq ptr %0, null
  %cmp2 = icmp ugt i32 %bits, 32
  %or.cond = or i1 %cmp2, %cmp1
  br i1 %or.cond, label %return, label %if.end4

if.end4:                                          ; preds = %lor.lhs.false
  %cmp5 = icmp eq i32 %bits, 0
  br i1 %cmp5, label %return, label %if.end7

if.end7:                                          ; preds = %if.end4
  %capacity = getelementptr inbounds nuw i8, ptr %bw, i64 16
  %1 = load i32, ptr %capacity, align 8
  %words = getelementptr inbounds nuw i8, ptr %bw, i64 20
  %2 = load i32, ptr %words, align 4
  %add = add i32 %2, %bits
  %cmp8.not = icmp ugt i32 %1, %add
  br i1 %cmp8.not, label %if.end10, label %land.lhs.true

land.lhs.true:                                    ; preds = %if.end7
  %bits.i = getelementptr inbounds nuw i8, ptr %bw, i64 24
  %3 = load i32, ptr %bits.i, align 8
  %add.i = add nuw nsw i32 %bits, 63
  %sub.i = add i32 %add.i, %3
  %div15.i = lshr i32 %sub.i, 6
  %add2.i = add i32 %div15.i, %2
  %cmp.not.i = icmp ult i32 %1, %add2.i
  br i1 %cmp.not.i, label %if.end.i, label %if.end10

if.end.i:                                         ; preds = %land.lhs.true
  %conv.i = zext i32 %add2.i to i64
  %mul.i = shl nuw nsw i64 %conv.i, 3
  %4 = load i32, ptr @FLAC__STREAM_METADATA_LENGTH_LEN, align 4
  %shl.i = shl nuw i32 1, %4
  %conv3.i = zext i32 %shl.i to i64
  %cmp4.i = icmp samesign ugt i64 %mul.i, %conv3.i
  br i1 %cmp4.i, label %return, label %if.end7.i

if.end7.i:                                        ; preds = %if.end.i
  %sub9.i = sub i32 %add2.i, %1
  %rem.i = and i32 %sub9.i, 511
  %tobool.not.i = icmp eq i32 %rem.i, 0
  %reass.sub.i = add i32 %add2.i, 512
  %add15.i = sub i32 %reass.sub.i, %rem.i
  %new_capacity.0.i = select i1 %tobool.not.i, i32 %add2.i, i32 %add15.i
  %conv17.i = zext i32 %new_capacity.0.i to i64
  %mul.i.i = shl nuw nsw i64 %conv17.i, 3
  %call4.i.i = tail call noalias noundef ptr @realloc(ptr noundef nonnull %0, i64 noundef %mul.i.i) #17
  %cmp18.i = icmp eq ptr %call4.i.i, null
  br i1 %cmp18.i, label %return, label %if.end21.i

if.end21.i:                                       ; preds = %if.end7.i
  store ptr %call4.i.i, ptr %bw, align 8
  store i32 %new_capacity.0.i, ptr %capacity, align 8
  br label %if.end10

if.end10:                                         ; preds = %if.end21.i, %land.lhs.true, %if.end7
  %5 = phi ptr [ %call4.i.i, %if.end21.i ], [ %0, %land.lhs.true ], [ %0, %if.end7 ]
  %bits11 = getelementptr inbounds nuw i8, ptr %bw, i64 24
  %6 = load i32, ptr %bits11, align 8
  %sub = sub i32 64, %6
  %cmp12 = icmp ult i32 %bits, %sub
  br i1 %cmp12, label %if.then13, label %if.else

if.then13:                                        ; preds = %if.end10
  %accum = getelementptr inbounds nuw i8, ptr %bw, i64 8
  %7 = load i64, ptr %accum, align 8
  %sh_prom = zext nneg i32 %bits to i64
  %shl = shl i64 %7, %sh_prom
  %conv = zext i32 %val to i64
  %or = or i64 %shl, %conv
  store i64 %or, ptr %accum, align 8
  %add16 = add i32 %6, %bits
  store i32 %add16, ptr %bits11, align 8
  br label %return

if.else:                                          ; preds = %if.end10
  %tobool18.not = icmp eq i32 %6, 0
  br i1 %tobool18.not, label %if.else33, label %if.then19

if.then19:                                        ; preds = %if.else
  %accum20 = getelementptr inbounds nuw i8, ptr %bw, i64 8
  %8 = load i64, ptr %accum20, align 8
  %sh_prom21 = zext nneg i32 %sub to i64
  %shl22 = shl i64 %8, %sh_prom21
  %sub23 = sub nsw i32 %bits, %sub
  store i32 %sub23, ptr %bits11, align 8
  %shr = lshr i32 %val, %sub23
  %conv25 = zext i32 %shr to i64
  %or27 = or i64 %shl22, %conv25
  %9 = tail call i64 @llvm.bswap.i64(i64 %or27)
  %10 = load i32, ptr %words, align 4
  %inc = add i32 %10, 1
  store i32 %inc, ptr %words, align 4
  %idxprom = zext i32 %10 to i64
  %arrayidx = getelementptr inbounds nuw i64, ptr %5, i64 %idxprom
  store i64 %9, ptr %arrayidx, align 8
  %conv31 = zext i32 %val to i64
  store i64 %conv31, ptr %accum20, align 8
  br label %return

if.else33:                                        ; preds = %if.else
  %conv34 = zext i32 %val to i64
  %11 = tail call i64 @llvm.bswap.i64(i64 %conv34)
  %12 = load i32, ptr %words, align 4
  %inc37 = add i32 %12, 1
  store i32 %inc37, ptr %words, align 4
  %idxprom38 = zext i32 %12 to i64
  %arrayidx39 = getelementptr inbounds nuw i64, ptr %5, i64 %idxprom38
  store i64 %11, ptr %arrayidx39, align 8
  br label %return

return:                                           ; preds = %if.end7.i, %if.end.i, %if.then13, %if.else33, %if.then19, %if.end4, %entry, %lor.lhs.false
  %retval.0 = phi i32 [ 0, %lor.lhs.false ], [ 0, %entry ], [ 1, %if.end4 ], [ 1, %if.then19 ], [ 1, %if.else33 ], [ 1, %if.then13 ], [ 0, %if.end.i ], [ 0, %if.end7.i ]
  ret i32 %retval.0
}